; Function Attrs: mustprogress nofree norecurse nosync nounwind willreturn memory(argmem: read) uwtable
define dso_local noundef ptr @_ZN5clang18UserDefinedLiteral16getCookedLiteralEv(ptr noundef nonnull readonly align 8 captures(none) dereferenceable(32) %0) local_unnamed_addr #0 align 2 {
  %2 = load i32, ptr %0, align 8
  %3 = lshr i32 %2, 24
  %4 = zext nneg i32 %3 to i64
  %5 = getelementptr inbounds nuw i8, ptr %0, i64 %4
  %6 = getelementptr inbounds nuw i8, ptr %5, i64 8
  %7 = lshr i32 %2, 18
  %8 = and i32 %7, 1
  %9 = zext nneg i32 %8 to i64
  %10 = getelementptr inbounds nuw ptr, ptr %6, i64 %9
  %11 = load ptr, ptr %10, align 8
  ret ptr %11
}